target datalayout = "e-m:e-p270:32:32-p271:32:32-p272:64:64-i64:64-i128:128-f80:128-n8:16:32:64-S128"
target triple = "x86_64-pc-linux-gnu"

%struct.expert_field = type { i32, i32 }
%struct.nstime_t = type { i64, i32 }
%struct._packet_info = type { ptr, ptr, i32, i32, %struct.nstime_t, %struct.nstime_t, %struct.nstime_t, i8, ptr, ptr, ptr, ptr, %struct._address, %struct._address, %struct._address, %struct._address, %struct._address, %struct._address, i32, ptr, i8, [3 x i8], %struct.anon.1, i32, i32, i32, i32, ptr, i8, ptr, ptr, i16, i16, i32, i32, i16, i32, i32, ptr, ptr, ptr, i8, i8, i16, i16, i16, i32, i16, i16, ptr, ptr, ptr, ptr, ptr, i32, i32 }
%struct._address = type { i32, i32, ptr, ptr }
%struct.anon.1 = type { i8, [3 x i8] }
%struct._asn1_ctx_t = type { i32, i32, i8, ptr, ptr, ptr, ptr, ptr, %struct.anon.2, %struct.anon.5, %struct.anon.6, ptr }
%struct.anon.2 = type { i32, i8, i8, i8, ptr, ptr, i32, i32, ptr, ptr, ptr, %union.anon }
%union.anon = type { %struct.anon.3 }
%struct.anon.3 = type { ptr }
%struct.anon.5 = type { ptr, ptr, ptr }
%struct.anon.6 = type { i32, i8, ptr, i32, i32, ptr, ptr, ptr, %union.anon.7 }
%union.anon.7 = type { %struct.anon.8 }
%struct.anon.8 = type { ptr }

@ett_ldap_Filter = internal global i32 0, align 4
@ei_ldap_exceeded_filter_length = internal global %struct.expert_field zeroinitializer, align 4
@ei_ldap_too_many_filter_elements = internal global %struct.expert_field zeroinitializer, align 4
@attributedesc_string = internal global ptr null, align 8
@Filter_string = internal global ptr null, align 8
@Filter_elements = internal global i32 0, align 4
@Filter_length = internal global i32 0, align 4
@.str.888 = private unnamed_addr constant [37 x i8] c"Filter length exceeds %u. Giving up.\00", align 1
@.str.889 = private unnamed_addr constant [47 x i8] c"Found more than %u filter elements. Giving up.\00", align 1
@.str.890 = private unnamed_addr constant [9 x i8] c"Filter: \00", align 1
@.str.891 = private unnamed_addr constant [3 x i8] c"%s\00", align 1
@.str.892 = private unnamed_addr constant [7 x i8] c"[NULL]\00", align 1

; Function Attrs: null_pointer_is_valid sspstrong uwtable
define internal i32 @dissect_ldap_Filter(i1 noundef zeroext %0, ptr noundef %1, i32 noundef %2, ptr noundef %3, ptr noundef %4, i32 noundef %5) #0 {
  %7 = alloca i8, align 1
  %8 = alloca ptr, align 8
  %9 = alloca i32, align 4
  %10 = alloca ptr, align 8
  %11 = alloca ptr, align 8
  %12 = alloca i32, align 4
  %13 = alloca ptr, align 8
  %14 = alloca ptr, align 8
  %15 = zext i1 %0 to i8
  store i8 %15, ptr %7, align 1
  store ptr %1, ptr %8, align 8
  store i32 %2, ptr %9, align 4
  store ptr %3, ptr %10, align 8
  store ptr %4, ptr %11, align 8
  store i32 %5, ptr %12, align 4
  %16 = load ptr, ptr %10, align 8
  %17 = getelementptr inbounds nuw %struct._asn1_ctx_t, ptr %16, i32 0, i32 3
  %18 = load ptr, ptr %17, align 8
  %19 = getelementptr inbounds nuw %struct._packet_info, ptr %18, i32 0, i32 54
  %20 = load i32, ptr %19, align 8
  %21 = add i32 %20, 3
  store i32 %21, ptr %19, align 8
  %22 = load ptr, ptr %10, align 8
  %23 = getelementptr inbounds nuw %struct._asn1_ctx_t, ptr %22, i32 0, i32 3
  %24 = load ptr, ptr %23, align 8
  call void @increment_dissection_depth(ptr noundef %24)
  call void @llvm.lifetime.start.p0(i64 8, ptr %13) #16
  call void @llvm.lifetime.start.p0(i64 8, ptr %14) #16
  store ptr null, ptr @attributedesc_string, align 8
  %25 = load i32, ptr @Filter_length, align 4
  %26 = add i32 %25, 1
  store i32 %26, ptr @Filter_length, align 4
  %27 = icmp sgt i32 %25, 4096
  br i1 %27, label %28, label %34

28:                                               ; preds = %6
  %29 = load ptr, ptr %10, align 8
  %30 = getelementptr inbounds nuw %struct._asn1_ctx_t, ptr %29, i32 0, i32 3
  %31 = load ptr, ptr %30, align 8
  %32 = load ptr, ptr %11, align 8
  %33 = call ptr (ptr, ptr, ptr, ptr, ...) @expert_add_info_format(ptr noundef %31, ptr noundef %32, ptr noundef @ei_ldap_exceeded_filter_length, ptr noundef @.str.888, i32 noundef 4096)
  call void @except_throw(i64 noundef 1, i64 noundef 3, ptr noundef null) #21
  unreachable

34:                                               ; preds = %6
  %35 = load i32, ptr @Filter_elements, align 4
  %36 = add i32 %35, 1
  store i32 %36, ptr @Filter_elements, align 4
  %37 = icmp sgt i32 %35, 200
  br i1 %37, label %38, label %44

38:                                               ; preds = %34
  %39 = load ptr, ptr %10, align 8
  %40 = getelementptr inbounds nuw %struct._asn1_ctx_t, ptr %39, i32 0, i32 3
  %41 = load ptr, ptr %40, align 8
  %42 = load ptr, ptr %11, align 8
  %43 = call ptr (ptr, ptr, ptr, ptr, ...) @expert_add_info_format(ptr noundef %41, ptr noundef %42, ptr noundef @ei_ldap_too_many_filter_elements, ptr noundef @.str.889, i32 noundef 200)
  call void @except_throw(i64 noundef 1, i64 noundef 3, ptr noundef null) #21
  unreachable

44:                                               ; preds = %34
  %45 = load ptr, ptr %11, align 8
  %46 = load ptr, ptr %8, align 8
  %47 = load i32, ptr %9, align 4
  %48 = load i32, ptr @ett_ldap_Filter, align 4
  %49 = call ptr @proto_tree_add_subtree(ptr noundef %45, ptr noundef %46, i32 noundef %47, i32 noundef -1, i32 noundef %48, ptr noundef %14, ptr noundef @.str.890)
  store ptr %49, ptr %13, align 8
  %50 = load ptr, ptr %13, align 8
  store ptr %50, ptr %11, align 8
  %51 = load ptr, ptr %10, align 8
  %52 = load ptr, ptr %11, align 8
  %53 = load ptr, ptr %8, align 8
  %54 = load i32, ptr %9, align 4
  %55 = load i32, ptr %12, align 4
  %56 = load i32, ptr @ett_ldap_Filter, align 4
  %57 = call i32 @dissect_ber_choice(ptr noundef %51, ptr noundef %52, ptr noundef %53, i32 noundef %54, ptr noundef @Filter_choice, i32 noundef %55, i32 noundef %56, ptr noundef null)
  store i32 %57, ptr %9, align 4
  %58 = load ptr, ptr @Filter_string, align 8
  %59 = icmp ne ptr %58, null
  br i1 %59, label %60, label %69

60:                                               ; preds = %44
  %61 = load ptr, ptr %14, align 8
  %62 = load ptr, ptr @Filter_string, align 8
  %63 = icmp ne ptr %62, null
  br i1 %63, label %64, label %66

64:                                               ; preds = %60
  %65 = load ptr, ptr @Filter_string, align 8
  br label %67

66:                                               ; preds = %60
  br label %67

67:                                               ; preds = %66, %64
  %68 = phi ptr [ %65, %64 ], [ @.str.892, %66 ]
  call void (ptr, ptr, ...) @proto_item_append_text(ptr noundef %61, ptr noundef @.str.891, ptr noundef %68)
  br label %69

69:                                               ; preds = %67, %44
  %70 = load ptr, ptr %10, align 8
  %71 = getelementptr inbounds nuw %struct._asn1_ctx_t, ptr %70, i32 0, i32 3
  %72 = load ptr, ptr %71, align 8
  %73 = getelementptr inbounds nuw %struct._packet_info, ptr %72, i32 0, i32 54
  %74 = load i32, ptr %73, align 8
  %75 = sub i32 %74, 3
  store i32 %75, ptr %73, align 8
  %76 = load ptr, ptr %10, align 8
  %77 = getelementptr inbounds nuw %struct._asn1_ctx_t, ptr %76, i32 0, i32 3
  %78 = load ptr, ptr %77, align 8
  call void @decrement_dissection_depth(ptr noundef %78)
  %79 = load i32, ptr %9, align 4
  call void @llvm.lifetime.end.p0(i64 8, ptr %14) #16
  call void @llvm.lifetime.end.p0(i64 8, ptr %13) #16
  ret i32 %79
}