; Function Attrs: null_pointer_is_valid sspstrong uwtable
define internal fastcc i32 @dissect_ldap_Filter(ptr noundef %0, i32 noundef %1, ptr noundef %2, ptr noundef %3, i32 noundef %4) unnamed_addr #0 {
  %6 = alloca ptr, align 8
  %7 = getelementptr inbounds nuw i8, ptr %2, i64 16
  %8 = load ptr, ptr %7, align 8
  %9 = getelementptr inbounds nuw i8, ptr %8, i64 432
  %10 = load i32, ptr %9, align 8
  %11 = add i32 %10, 3
  store i32 %11, ptr %9, align 8
  %12 = load ptr, ptr %7, align 8
  tail call void @increment_dissection_depth(ptr noundef %12)
  call void @llvm.lifetime.start.p0(i64 8, ptr nonnull %6) #14
  store ptr null, ptr @attributedesc_string, align 8
  %13 = load i32, ptr @Filter_length, align 4
  %14 = add i32 %13, 1
  store i32 %14, ptr @Filter_length, align 4
  %15 = icmp sgt i32 %13, 4096
  br i1 %15, label %16, label %19

16:                                               ; preds = %5
  %17 = load ptr, ptr %7, align 8
  %18 = tail call ptr (ptr, ptr, ptr, ptr, ...) @expert_add_info_format(ptr noundef %17, ptr noundef %3, ptr noundef nonnull @ei_ldap_exceeded_filter_length, ptr noundef nonnull @.str.888, i32 noundef 4096)
  tail call void @except_throw(i64 noundef 1, i64 noundef 3, ptr noundef null) #19
  unreachable

19:                                               ; preds = %5
  %20 = load i32, ptr @Filter_elements, align 4
  %21 = add i32 %20, 1
  store i32 %21, ptr @Filter_elements, align 4
  %22 = icmp sgt i32 %20, 200
  br i1 %22, label %23, label %26

23:                                               ; preds = %19
  %24 = load ptr, ptr %7, align 8
  %25 = tail call ptr (ptr, ptr, ptr, ptr, ...) @expert_add_info_format(ptr noundef %24, ptr noundef %3, ptr noundef nonnull @ei_ldap_too_many_filter_elements, ptr noundef nonnull @.str.889, i32 noundef 200)
  tail call void @except_throw(i64 noundef 1, i64 noundef 3, ptr noundef null) #19
  unreachable

26:                                               ; preds = %19
  %27 = load i32, ptr @ett_ldap_Filter, align 4
  %28 = call ptr @proto_tree_add_subtree(ptr noundef %3, ptr noundef %0, i32 noundef %1, i32 noundef -1, i32 noundef %27, ptr noundef nonnull %6, ptr noundef nonnull @.str.890)
  %29 = load i32, ptr @ett_ldap_Filter, align 4
  %30 = call i32 @dissect_ber_choice(ptr noundef %2, ptr noundef %28, ptr noundef %0, i32 noundef %1, ptr noundef nonnull @Filter_choice, i32 noundef %4, i32 noundef %29, ptr noundef null)
  %31 = load ptr, ptr @Filter_string, align 8
  %.not = icmp eq ptr %31, null
  br i1 %.not, label %34, label %32

32:                                               ; preds = %26
  %33 = load ptr, ptr %6, align 8
  call void (ptr, ptr, ...) @proto_item_append_text(ptr noundef %33, ptr noundef nonnull @.str.891, ptr noundef nonnull %31)
  br label %34

34:                                               ; preds = %32, %26
  %35 = load ptr, ptr %7, align 8
  %36 = getelementptr inbounds nuw i8, ptr %35, i64 432
  %37 = load i32, ptr %36, align 8
  %38 = add i32 %37, -3
  store i32 %38, ptr %36, align 8
  %39 = load ptr, ptr %7, align 8
  call void @decrement_dissection_depth(ptr noundef %39)
  call void @llvm.lifetime.end.p0(i64 8, ptr nonnull %6) #14
  ret i32 %30
}